target datalayout = "e-m:e-p270:32:32-p271:32:32-p272:64:64-i64:64-i128:128-f80:128-n8:16:32:64-S128"
target triple = "x86_64-pc-linux-gnu"

@.str = private unnamed_addr constant [22 x i8] c"slurm_protocol_defs.c\00", align 1
@__func__.slurm_array16_to_value_reps = private unnamed_addr constant [28 x i8] c"slurm_array16_to_value_reps\00", align 1

; Function Attrs: nounwind uwtable
define dso_local void @slurm_array16_to_value_reps(ptr noundef %0, i32 noundef %1, ptr noundef %2, ptr noundef %3, ptr noundef %4) #0 {
  %6 = alloca ptr, align 8
  %7 = alloca i32, align 4
  %8 = alloca ptr, align 8
  %9 = alloca ptr, align 8
  %10 = alloca ptr, align 8
  %11 = alloca i16, align 2
  %12 = alloca i32, align 4
  %13 = alloca i32, align 4
  %14 = alloca i32, align 4
  %15 = alloca i32, align 4
  store ptr %0, ptr %6, align 8
  store i32 %1, ptr %7, align 4
  store ptr %2, ptr %8, align 8
  store ptr %3, ptr %9, align 8
  store ptr %4, ptr %10, align 8
  br label %16

16:                                               ; preds = %5
  call void @llvm.lifetime.start.p0(i64 2, ptr %11) #11
  call void @llvm.lifetime.start.p0(i64 4, ptr %12) #11
  store i32 0, ptr %12, align 4
  %17 = load ptr, ptr %6, align 8
  %18 = icmp ne ptr %17, null
  br i1 %18, label %20, label %19

19:                                               ; preds = %16
  store i32 1, ptr %13, align 4
  br label %115

20:                                               ; preds = %16
  %21 = load ptr, ptr %10, align 8
  store i32 1, ptr %21, align 4
  %22 = load ptr, ptr %6, align 8
  %23 = getelementptr inbounds i16, ptr %22, i64 0
  %24 = load i16, ptr %23, align 2
  store i16 %24, ptr %11, align 2
  call void @llvm.lifetime.start.p0(i64 4, ptr %14) #11
  store i32 0, ptr %14, align 4
  br label %25

25:                                               ; preds = %50, %20
  %26 = load i32, ptr %14, align 4
  %27 = load i32, ptr %7, align 4
  %28 = icmp ult i32 %26, %27
  br i1 %28, label %30, label %29

29:                                               ; preds = %25
  store i32 4, ptr %13, align 4
  call void @llvm.lifetime.end.p0(i64 4, ptr %14) #11
  br label %53

30:                                               ; preds = %25
  %31 = load i16, ptr %11, align 2
  %32 = zext i16 %31 to i32
  %33 = load ptr, ptr %6, align 8
  %34 = load i32, ptr %14, align 4
  %35 = sext i32 %34 to i64
  %36 = getelementptr inbounds i16, ptr %33, i64 %35
  %37 = load i16, ptr %36, align 2
  %38 = zext i16 %37 to i32
  %39 = icmp ne i32 %32, %38
  br i1 %39, label %40, label %49

40:                                               ; preds = %30
  %41 = load ptr, ptr %6, align 8
  %42 = load i32, ptr %14, align 4
  %43 = sext i32 %42 to i64
  %44 = getelementptr inbounds i16, ptr %41, i64 %43
  %45 = load i16, ptr %44, align 2
  store i16 %45, ptr %11, align 2
  %46 = load ptr, ptr %10, align 8
  %47 = load i32, ptr %46, align 4
  %48 = add i32 %47, 1
  store i32 %48, ptr %46, align 4
  br label %49

49:                                               ; preds = %40, %30
  br label %50

50:                                               ; preds = %49
  %51 = load i32, ptr %14, align 4
  %52 = add nsw i32 %51, 1
  store i32 %52, ptr %14, align 4
  br label %25, !llvm.loop !76

53:                                               ; preds = %29
  %54 = load ptr, ptr %10, align 8
  %55 = load i32, ptr %54, align 4
  %56 = zext i32 %55 to i64
  %57 = call ptr @slurm_xcalloc(i64 noundef %56, i64 noundef 2, i1 noundef zeroext true, i1 noundef zeroext false, ptr noundef @.str, i32 noundef 5907, ptr noundef @__func__.slurm_array16_to_value_reps)
  %58 = load ptr, ptr %8, align 8
  store ptr %57, ptr %58, align 8
  %59 = load ptr, ptr %10, align 8
  %60 = load i32, ptr %59, align 4
  %61 = zext i32 %60 to i64
  %62 = call ptr @slurm_xcalloc(i64 noundef %61, i64 noundef 4, i1 noundef zeroext true, i1 noundef zeroext false, ptr noundef @.str, i32 noundef 5907, ptr noundef @__func__.slurm_array16_to_value_reps)
  %63 = load ptr, ptr %9, align 8
  store ptr %62, ptr %63, align 8
  %64 = load ptr, ptr %6, align 8
  %65 = getelementptr inbounds i16, ptr %64, i64 0
  %66 = load i16, ptr %65, align 2
  %67 = load ptr, ptr %8, align 8
  %68 = load ptr, ptr %67, align 8
  %69 = getelementptr inbounds i16, ptr %68, i64 0
  store i16 %66, ptr %69, align 2
  store i16 %66, ptr %11, align 2
  call void @llvm.lifetime.start.p0(i64 4, ptr %15) #11
  store i32 0, ptr %15, align 4
  br label %70

70:                                               ; preds = %111, %53
  %71 = load i32, ptr %15, align 4
  %72 = load i32, ptr %7, align 4
  %73 = icmp ult i32 %71, %72
  br i1 %73, label %75, label %74

74:                                               ; preds = %70
  store i32 7, ptr %13, align 4
  call void @llvm.lifetime.end.p0(i64 4, ptr %15) #11
  br label %114

75:                                               ; preds = %70
  %76 = load i16, ptr %11, align 2
  %77 = zext i16 %76 to i32
  %78 = load ptr, ptr %6, align 8
  %79 = load i32, ptr %15, align 4
  %80 = sext i32 %79 to i64
  %81 = getelementptr inbounds i16, ptr %78, i64 %80
  %82 = load i16, ptr %81, align 2
  %83 = zext i16 %82 to i32
  %84 = icmp ne i32 %77, %83
  br i1 %84, label %85, label %103

85:                                               ; preds = %75
  %86 = load ptr, ptr %6, align 8
  %87 = load i32, ptr %15, align 4
  %88 = sext i32 %87 to i64
  %89 = getelementptr inbounds i16, ptr %86, i64 %88
  %90 = load i16, ptr %89, align 2
  store i16 %90, ptr %11, align 2
  %91 = load i32, ptr %12, align 4
  %92 = add nsw i32 %91, 1
  store i32 %92, ptr %12, align 4
  %93 = load ptr, ptr %6, align 8
  %94 = load i32, ptr %15, align 4
  %95 = sext i32 %94 to i64
  %96 = getelementptr inbounds i16, ptr %93, i64 %95
  %97 = load i16, ptr %96, align 2
  %98 = load ptr, ptr %8, align 8
  %99 = load ptr, ptr %98, align 8
  %100 = load i32, ptr %12, align 4
  %101 = sext i32 %100 to i64
  %102 = getelementptr inbounds i16, ptr %99, i64 %101
  store i16 %97, ptr %102, align 2
  br label %103

103:                                              ; preds = %85, %75
  %104 = load ptr, ptr %9, align 8
  %105 = load ptr, ptr %104, align 8
  %106 = load i32, ptr %12, align 4
  %107 = sext i32 %106 to i64
  %108 = getelementptr inbounds i32, ptr %105, i64 %107
  %109 = load i32, ptr %108, align 4
  %110 = add i32 %109, 1
  store i32 %110, ptr %108, align 4
  br label %111

111:                                              ; preds = %103
  %112 = load i32, ptr %15, align 4
  %113 = add nsw i32 %112, 1
  store i32 %113, ptr %15, align 4
  br label %70, !llvm.loop !77

114:                                              ; preds = %74
  store i32 0, ptr %13, align 4
  br label %115

115:                                              ; preds = %114, %19
  call void @llvm.lifetime.end.p0(i64 4, ptr %12) #11
  call void @llvm.lifetime.end.p0(i64 2, ptr %11) #11
  %116 = load i32, ptr %13, align 4
  switch i32 %116, label %119 [
    i32 0, label %117
    i32 1, label %118
  ]

117:                                              ; preds = %115
  br label %118

118:                                              ; preds = %115, %117
  ret void

119:                                              ; preds = %115
  unreachable
}