; Function Attrs: nounwind uwtable
define dso_local void @slurm_array16_to_value_reps(ptr noundef readonly captures(address_is_null) %0, i32 noundef %1, ptr noundef captures(none) %2, ptr noundef captures(none) %3, ptr noundef captures(none) %4) local_unnamed_addr #1 {
  %.not = icmp eq ptr %0, null
  br i1 %.not, label %.loopexit, label %6

6:                                                ; preds = %5
  store i32 1, ptr %4, align 4
  %.not47 = icmp eq i32 %1, 0
  br i1 %.not47, label %._crit_edge, label %.lr.ph.preheader

.lr.ph.preheader:                                 ; preds = %6
  %7 = load i16, ptr %0, align 2
  %wide.trip.count = zext i32 %1 to i64
  br label %.lr.ph

._crit_edge.loopexit:                             ; preds = %21
  %8 = zext i32 %22 to i64
  br label %._crit_edge

._crit_edge:                                      ; preds = %._crit_edge.loopexit, %6
  %9 = phi i64 [ %8, %._crit_edge.loopexit ], [ 1, %6 ]
  %10 = tail call ptr @slurm_xcalloc(i64 noundef %9, i64 noundef 2, i1 noundef zeroext true, i1 noundef zeroext false, ptr noundef nonnull @.str, i32 noundef 5907, ptr noundef nonnull @__func__.slurm_array16_to_value_reps) #24
  store ptr %10, ptr %2, align 8
  %11 = load i32, ptr %4, align 4
  %12 = zext i32 %11 to i64
  %13 = tail call ptr @slurm_xcalloc(i64 noundef %12, i64 noundef 4, i1 noundef zeroext true, i1 noundef zeroext false, ptr noundef nonnull @.str, i32 noundef 5907, ptr noundef nonnull @__func__.slurm_array16_to_value_reps) #24
  store ptr %13, ptr %3, align 8
  %14 = load i16, ptr %0, align 2
  %15 = load ptr, ptr %2, align 8
  store i16 %14, ptr %15, align 2
  br i1 %.not47, label %.loopexit, label %.lr.ph46.preheader

.lr.ph46.preheader:                               ; preds = %._crit_edge
  %wide.trip.count51 = zext i32 %1 to i64
  br label %.lr.ph46

.lr.ph:                                           ; preds = %.lr.ph.preheader, %21
  %16 = phi i32 [ 1, %.lr.ph.preheader ], [ %22, %21 ]
  %indvars.iv = phi i64 [ 0, %.lr.ph.preheader ], [ %indvars.iv.next, %21 ]
  %.03440 = phi i16 [ %7, %.lr.ph.preheader ], [ %.135, %21 ]
  %17 = getelementptr inbounds nuw i16, ptr %0, i64 %indvars.iv
  %18 = load i16, ptr %17, align 2
  %.not39 = icmp eq i16 %.03440, %18
  br i1 %.not39, label %21, label %19

19:                                               ; preds = %.lr.ph
  %20 = add i32 %16, 1
  store i32 %20, ptr %4, align 4
  br label %21

21:                                               ; preds = %.lr.ph, %19
  %22 = phi i32 [ %20, %19 ], [ %16, %.lr.ph ]
  %.135 = phi i16 [ %18, %19 ], [ %.03440, %.lr.ph ]
  %indvars.iv.next = add nuw nsw i64 %indvars.iv, 1
  %exitcond.not = icmp eq i64 %indvars.iv.next, %wide.trip.count
  br i1 %exitcond.not, label %._crit_edge.loopexit, label %.lr.ph, !llvm.loop !77

.lr.ph46:                                         ; preds = %.lr.ph46.preheader, %30
  %indvars.iv49 = phi i64 [ 0, %.lr.ph46.preheader ], [ %indvars.iv.next50, %30 ]
  %.03343 = phi i32 [ 0, %.lr.ph46.preheader ], [ %.1, %30 ]
  %.242 = phi i16 [ %14, %.lr.ph46.preheader ], [ %.3, %30 ]
  %23 = getelementptr inbounds nuw i16, ptr %0, i64 %indvars.iv49
  %24 = load i16, ptr %23, align 2
  %.not38 = icmp eq i16 %.242, %24
  br i1 %.not38, label %.lr.ph46._crit_edge, label %25

.lr.ph46._crit_edge:                              ; preds = %.lr.ph46
  %.pre = sext i32 %.03343 to i64
  br label %30

25:                                               ; preds = %.lr.ph46
  %26 = add nsw i32 %.03343, 1
  %27 = load ptr, ptr %2, align 8
  %28 = sext i32 %26 to i64
  %29 = getelementptr inbounds i16, ptr %27, i64 %28
  store i16 %24, ptr %29, align 2
  br label %30

30:                                               ; preds = %.lr.ph46._crit_edge, %25
  %.pre-phi = phi i64 [ %.pre, %.lr.ph46._crit_edge ], [ %28, %25 ]
  %.3 = phi i16 [ %.242, %.lr.ph46._crit_edge ], [ %24, %25 ]
  %.1 = phi i32 [ %.03343, %.lr.ph46._crit_edge ], [ %26, %25 ]
  %31 = load ptr, ptr %3, align 8
  %32 = getelementptr inbounds i32, ptr %31, i64 %.pre-phi
  %33 = load i32, ptr %32, align 4
  %34 = add i32 %33, 1
  store i32 %34, ptr %32, align 4
  %indvars.iv.next50 = add nuw nsw i64 %indvars.iv49, 1
  %exitcond52.not = icmp eq i64 %indvars.iv.next50, %wide.trip.count51
  br i1 %exitcond52.not, label %.loopexit, label %.lr.ph46, !llvm.loop !78

.loopexit:                                        ; preds = %30, %._crit_edge, %5
  ret void
}